; Function Attrs: mustprogress uwtable
define hidden void @_ZN3smt5setup14setup_mi_arithEv(ptr nocapture noundef nonnull readonly align 8 dereferenceable(33) %this) local_unnamed_addr #4 align 2 {
entry:
  %m_params = getelementptr inbounds i8, ptr %this, i64 16
  %0 = load ptr, ptr %m_params, align 8
  %m_arith_mode = getelementptr inbounds i8, ptr %0, i64 252
  %1 = load i32, ptr %m_arith_mode, align 4
  %2 = load ptr, ptr %this, align 8
  switch i32 %1, label %sw.default [
    i32 5, label %sw.bb
    i32 6, label %_ZN3smt5setup15setup_lra_arithEv.exit
  ]

sw.bb:                                            ; preds = %entry
  %call = tail call noalias noundef ptr @_ZN6memory8allocateEm(i64 noundef 1736)
  %3 = load ptr, ptr %this, align 8
  tail call void @_ZN3smt12theory_arithINS_7inf_extEEC1ERNS_7contextE(ptr noundef nonnull align 8 dereferenceable(1736) %call, ptr noundef nonnull align 8 dereferenceable(11616) %3)
  br label %sw.epilog

_ZN3smt5setup15setup_lra_arithEv.exit:            ; preds = %entry
  %call4.i = tail call noalias noundef ptr @_ZN6memory8allocateEm(i64 noundef 72)
  %4 = load ptr, ptr %this, align 8
  tail call void @_ZN3smt10theory_lraC1ERNS_7contextE(ptr noundef nonnull align 8 dereferenceable(72) %call4.i, ptr noundef nonnull align 8 dereferenceable(11616) %4)
  br label %sw.epilog

sw.default:                                       ; preds = %entry
  %call5 = tail call noalias noundef ptr @_ZN6memory8allocateEm(i64 noundef 1640)
  %5 = load ptr, ptr %this, align 8
  tail call void @_ZN3smt12theory_arithINS_6mi_extEEC1ERNS_7contextE(ptr noundef nonnull align 8 dereferenceable(1640) %call5, ptr noundef nonnull align 8 dereferenceable(11616) %5)
  br label %sw.epilog

sw.epilog:                                        ; preds = %sw.default, %_ZN3smt5setup15setup_lra_arithEv.exit, %sw.bb
  %call5.sink = phi ptr [ %call5, %sw.default ], [ %call4.i, %_ZN3smt5setup15setup_lra_arithEv.exit ], [ %call, %sw.bb ]
  tail call void @_ZN3smt7context15register_pluginEPNS_6theoryE(ptr noundef nonnull align 8 dereferenceable(11616) %2, ptr noundef nonnull %call5.sink)
  ret void
}